; Function Attrs: mustprogress nofree norecurse nosync nounwind willreturn memory(argmem: write) uwtable
define void @_ZN6icu_776RegionC2Ev(ptr noundef nonnull writeonly align 8 captures(none) dereferenceable(112) initializes((0, 9), (16, 26), (80, 112)) %0) unnamed_addr #13 align 2 personality ptr @__gxx_personality_v0 {
  store ptr getelementptr inbounds nuw inrange(-16, 24) (i8, ptr @_ZTVN6icu_776RegionE, i64 16), ptr %0, align 8, !tbaa !26
  %2 = getelementptr inbounds nuw i8, ptr %0, i64 16
  store ptr getelementptr inbounds nuw inrange(-16, 88) (i8, ptr @_ZTVN6icu_7713UnicodeStringE, i64 16), ptr %2, align 8, !tbaa !26
  %3 = getelementptr inbounds nuw i8, ptr %0, i64 24
  store i16 2, ptr %3, align 8, !tbaa !28
  %4 = getelementptr inbounds nuw i8, ptr %0, i64 80
  store i32 -1, ptr %4, align 8, !tbaa !65
  %5 = getelementptr inbounds nuw i8, ptr %0, i64 84
  %6 = getelementptr inbounds nuw i8, ptr %0, i64 8
  store i8 0, ptr %6, align 8, !tbaa !28
  tail call void @llvm.memset.p0.i64(ptr noundef nonnull align 4 dereferenceable(28) %5, i8 0, i64 28, i1 false)
  ret void
}